target datalayout = "e-m:e-p270:32:32-p271:32:32-p272:64:64-i64:64-i128:128-f80:128-n8:16:32:64-S128"
target triple = "x86_64-unknown-linux-gnu"

%"class.facebook::velox::memory::MemoryAllocator" = type { ptr, %"class.std::enable_shared_from_this", %"class.std::vector", %"struct.std::atomic", %"struct.std::atomic", i32, i8, %"struct.facebook::velox::memory::Stats" }
%"class.std::enable_shared_from_this" = type { %"class.std::weak_ptr" }
%"class.std::weak_ptr" = type { %"class.std::__weak_ptr" }
%"class.std::__weak_ptr" = type { ptr, %"class.std::__weak_count" }
%"class.std::__weak_count" = type { ptr }
%"class.std::vector" = type { %"struct.std::_Vector_base" }
%"struct.std::_Vector_base" = type { %"struct.std::_Vector_base<unsigned long, std::allocator<unsigned long>>::_Vector_impl" }
%"struct.std::_Vector_base<unsigned long, std::allocator<unsigned long>>::_Vector_impl" = type { %"struct.std::_Vector_base<unsigned long, std::allocator<unsigned long>>::_Vector_impl_data" }
%"struct.std::_Vector_base<unsigned long, std::allocator<unsigned long>>::_Vector_impl_data" = type { ptr, ptr, ptr }
%"struct.std::atomic" = type { %"struct.std::__atomic_base" }
%"struct.std::__atomic_base" = type { i64 }
%"struct.facebook::velox::memory::Stats" = type { %"struct.std::array", i64 }
%"struct.std::array" = type { [20 x %"struct.facebook::velox::memory::SizeClassStats"] }
%"struct.facebook::velox::memory::SizeClassStats" = type { i32, %"struct.std::atomic", %"struct.std::atomic", %"struct.std::atomic.0", %"struct.std::atomic.0" }
%"struct.std::atomic.0" = type { %"struct.std::__atomic_base.1" }
%"struct.std::__atomic_base.1" = type { i64 }
%"class.facebook::velox::ClockTimer" = type { ptr, ptr, i64 }
%"class.facebook::velox::memory::ContiguousAllocation" = type { ptr, ptr, i64, i64 }
%class.anon.24 = type { ptr, ptr }

@_ZN3fLB28FLAGS_velox_time_allocationsE = external global i8, align 1

; Function Attrs: mustprogress nounwind uwtable
define linkonce_odr noundef i64 @_ZNSt13__atomic_baseImEpLEm(ptr noundef nonnull align 8 dereferenceable(8) %this, i64 noundef %__i) #1 comdat align 2 {
entry:
  %this.addr = alloca ptr, align 8
  %__i.addr = alloca i64, align 8
  %.atomictmp = alloca i64, align 8
  %atomic-temp = alloca i64, align 8
  store ptr %this, ptr %this.addr, align 8
  store i64 %__i, ptr %__i.addr, align 8
  %this1 = load ptr, ptr %this.addr, align 8
  %_M_i = getelementptr inbounds %"struct.std::__atomic_base", ptr %this1, i32 0, i32 0
  %0 = load i64, ptr %__i.addr, align 8
  store i64 %0, ptr %.atomictmp, align 8
  %1 = load i64, ptr %.atomictmp, align 8
  %2 = atomicrmw add ptr %_M_i, i64 %1 seq_cst, align 8
  %3 = add i64 %2, %1
  store i64 %3, ptr %atomic-temp, align 8
  %4 = load i64, ptr %atomic-temp, align 8
  ret i64 %4
}

; Function Attrs: mustprogress nounwind uwtable
define linkonce_odr noundef i64 @_ZN5folly18hardware_timestampEv() #1 comdat {
entry:
  %0 = call i64 @llvm.x86.rdtsc()
  ret i64 %0
}

; Function Attrs: mustprogress nounwind uwtable
define linkonce_odr noundef nonnull align 8 dereferenceable(40) ptr @_ZNSt14__array_traitsIN8facebook5velox6memory14SizeClassStatsELm20EE6_S_refERA20_KS3_m(ptr noundef nonnull align 8 dereferenceable(800) %__t, i64 noundef %__n) #1 comdat align 2 {
entry:
  %__t.addr = alloca ptr, align 8
  %__n.addr = alloca i64, align 8
  store ptr %__t, ptr %__t.addr, align 8
  store i64 %__n, ptr %__n.addr, align 8
  %0 = load ptr, ptr %__t.addr, align 8
  %1 = load i64, ptr %__n.addr, align 8
  %arrayidx = getelementptr inbounds [20 x %"struct.facebook::velox::memory::SizeClassStats"], ptr %0, i64 0, i64 %1
  ret ptr %arrayidx
}

; Function Attrs: mustprogress nounwind uwtable
define linkonce_odr noundef nonnull align 4 dereferenceable(4) ptr @_ZSt3minIiERKT_S2_S2_(ptr noundef nonnull align 4 dereferenceable(4) %__a, ptr noundef nonnull align 4 dereferenceable(4) %__b) #1 comdat {
entry:
  %retval = alloca ptr, align 8
  %__a.addr = alloca ptr, align 8
  %__b.addr = alloca ptr, align 8
  store ptr %__a, ptr %__a.addr, align 8
  store ptr %__b, ptr %__b.addr, align 8
  %0 = load ptr, ptr %__b.addr, align 8
  %1 = load i32, ptr %0, align 4
  %2 = load ptr, ptr %__a.addr, align 8
  %3 = load i32, ptr %2, align 4
  %cmp = icmp slt i32 %1, %3
  br i1 %cmp, label %if.then, label %if.end

if.then:                                          ; preds = %entry
  %4 = load ptr, ptr %__b.addr, align 8
  store ptr %4, ptr %retval, align 8
  br label %return

if.end:                                           ; preds = %entry
  %5 = load ptr, ptr %__a.addr, align 8
  store ptr %5, ptr %retval, align 8
  br label %return

return:                                           ; preds = %if.end, %if.then
  %6 = load ptr, ptr %retval, align 8
  ret ptr %6
}

; Function Attrs: mustprogress nounwind uwtable
define linkonce_odr noundef i32 @_ZN8facebook5velox4bits17countLeadingZerosImEEiT_(i64 noundef %word) #1 comdat {
entry:
  %retval = alloca i32, align 4
  %word.addr = alloca i64, align 8
  store i64 %word, ptr %word.addr, align 8
  %0 = load i64, ptr %word.addr, align 8
  %cmp = icmp eq i64 %0, 0
  br i1 %cmp, label %if.then, label %if.end

if.then:                                          ; preds = %entry
  store i32 64, ptr %retval, align 4
  br label %return

if.end:                                           ; preds = %entry
  %1 = load i64, ptr %word.addr, align 8
  %2 = call i64 @llvm.ctlz.i64(i64 %1, i1 true)
  %cast = trunc i64 %2 to i32
  store i32 %cast, ptr %retval, align 4
  br label %return

return:                                           ; preds = %if.end, %if.then
  %3 = load i32, ptr %retval, align 4
  ret i32 %3
}

; Function Attrs: mustprogress uwtable
define linkonce_odr noundef i64 @_ZN8facebook5velox4bits14nextPowerOfTwoEm(i64 noundef %size) #0 comdat {
entry:
  %retval = alloca i64, align 8
  %size.addr = alloca i64, align 8
  %bits = alloca i32, align 4
  %lower = alloca i64, align 8
  store i64 %size, ptr %size.addr, align 8
  %0 = load i64, ptr %size.addr, align 8
  %cmp = icmp eq i64 %0, 0
  br i1 %cmp, label %if.then, label %if.end

if.then:                                          ; preds = %entry
  store i64 0, ptr %retval, align 8
  br label %return

if.end:                                           ; preds = %entry
  %1 = load i64, ptr %size.addr, align 8
  %call = call noundef i32 @_ZN8facebook5velox4bits17countLeadingZerosImEEiT_(i64 noundef %1)
  %sub = sub nsw i32 63, %call
  store i32 %sub, ptr %bits, align 4
  %2 = load i32, ptr %bits, align 4
  %sh_prom = zext i32 %2 to i64
  %shl = shl i64 1, %sh_prom
  store i64 %shl, ptr %lower, align 8
  %3 = load i64, ptr %lower, align 8
  %4 = load i64, ptr %size.addr, align 8
  %cmp1 = icmp eq i64 %3, %4
  br i1 %cmp1, label %if.then2, label %if.end3

if.then2:                                         ; preds = %if.end
  %5 = load i64, ptr %size.addr, align 8
  store i64 %5, ptr %retval, align 8
  br label %return

if.end3:                                          ; preds = %if.end
  %6 = load i64, ptr %lower, align 8
  %mul = mul i64 2, %6
  store i64 %mul, ptr %retval, align 8
  br label %return

return:                                           ; preds = %if.end3, %if.then2, %if.then
  %7 = load i64, ptr %retval, align 8
  ret i64 %7
}

; Function Attrs: mustprogress nounwind uwtable
define linkonce_odr void @_ZN8facebook5velox10ClockTimerD2Ev(ptr noundef nonnull align 8 dereferenceable(24) %this) unnamed_addr #1 comdat align 2 {
entry:
  %this.addr = alloca ptr, align 8
  %elapsed = alloca i64, align 8
  store ptr %this, ptr %this.addr, align 8
  %this1 = load ptr, ptr %this.addr, align 8
  %call = call noundef i64 @_ZN5folly18hardware_timestampEv()
  %start_ = getelementptr inbounds %"class.facebook::velox::ClockTimer", ptr %this1, i32 0, i32 2
  %0 = load i64, ptr %start_, align 8
  %sub = sub i64 %call, %0
  store i64 %sub, ptr %elapsed, align 8
  %total_ = getelementptr inbounds %"class.facebook::velox::ClockTimer", ptr %this1, i32 0, i32 0
  %1 = load ptr, ptr %total_, align 8
  %tobool = icmp ne ptr %1, null
  br i1 %tobool, label %if.then, label %if.else

if.then:                                          ; preds = %entry
  %2 = load i64, ptr %elapsed, align 8
  %total_2 = getelementptr inbounds %"class.facebook::velox::ClockTimer", ptr %this1, i32 0, i32 0
  %3 = load ptr, ptr %total_2, align 8
  %4 = load i64, ptr %3, align 8
  %add = add i64 %4, %2
  store i64 %add, ptr %3, align 8
  br label %if.end

if.else:                                          ; preds = %entry
  %5 = load i64, ptr %elapsed, align 8
  %atomicTotal_ = getelementptr inbounds %"class.facebook::velox::ClockTimer", ptr %this1, i32 0, i32 1
  %6 = load ptr, ptr %atomicTotal_, align 8
  %call3 = call noundef i64 @_ZNSt13__atomic_baseImEpLEm(ptr noundef nonnull align 8 dereferenceable(8) %6, i64 noundef %5) #19
  br label %if.end

if.end:                                           ; preds = %if.else, %if.then
  ret void
}

; Function Attrs: mustprogress uwtable
define internal void @"_ZZN8facebook5velox6memory15MallocAllocator14freeContiguousERNS1_20ContiguousAllocationEENK3$_0clEv"(ptr noundef nonnull align 8 dereferenceable(16) %this) #0 align 2 {
entry:
  %this.addr = alloca ptr, align 8
  store ptr %this, ptr %this.addr, align 8
  %this1 = load ptr, ptr %this.addr, align 8
  %0 = getelementptr inbounds %class.anon.24, ptr %this1, i32 0, i32 0
  %1 = load ptr, ptr %0, align 8
  %2 = getelementptr inbounds %class.anon.24, ptr %this1, i32 0, i32 1
  %3 = load ptr, ptr %2, align 8
  call void @_ZN8facebook5velox6memory15MallocAllocator18freeContiguousImplERNS1_20ContiguousAllocationE(ptr noundef nonnull align 8 dereferenceable(1016) %1, ptr noundef nonnull align 8 dereferenceable(32) %3)
  ret void
}

; Function Attrs: mustprogress uwtable
define linkonce_odr void @_ZN8facebook5velox10ClockTimerC2ERSt6atomicImE(ptr noundef nonnull align 8 dereferenceable(24) %this, ptr noundef nonnull align 8 dereferenceable(8) %total) unnamed_addr #0 comdat align 2 {
entry:
  %this.addr = alloca ptr, align 8
  %total.addr = alloca ptr, align 8
  store ptr %this, ptr %this.addr, align 8
  store ptr %total, ptr %total.addr, align 8
  %this1 = load ptr, ptr %this.addr, align 8
  %total_ = getelementptr inbounds %"class.facebook::velox::ClockTimer", ptr %this1, i32 0, i32 0
  store ptr null, ptr %total_, align 8
  %atomicTotal_ = getelementptr inbounds %"class.facebook::velox::ClockTimer", ptr %this1, i32 0, i32 1
  %0 = load ptr, ptr %total.addr, align 8
  store ptr %0, ptr %atomicTotal_, align 8
  %start_ = getelementptr inbounds %"class.facebook::velox::ClockTimer", ptr %this1, i32 0, i32 2
  %call = call noundef i64 @_ZN5folly18hardware_timestampEv()
  store i64 %call, ptr %start_, align 8
  ret void
}

; Function Attrs: mustprogress nounwind uwtable
define linkonce_odr noundef nonnull align 8 dereferenceable(40) ptr @_ZNSt5arrayIN8facebook5velox6memory14SizeClassStatsELm20EEixEm(ptr noundef nonnull align 8 dereferenceable(800) %this, i64 noundef %__n) #1 comdat align 2 {
entry:
  %this.addr = alloca ptr, align 8
  %__n.addr = alloca i64, align 8
  store ptr %this, ptr %this.addr, align 8
  store i64 %__n, ptr %__n.addr, align 8
  %this1 = load ptr, ptr %this.addr, align 8
  %_M_elems = getelementptr inbounds %"struct.std::array", ptr %this1, i32 0, i32 0
  %0 = load i64, ptr %__n.addr, align 8
  %call = call noundef nonnull align 8 dereferenceable(40) ptr @_ZNSt14__array_traitsIN8facebook5velox6memory14SizeClassStatsELm20EE6_S_refERA20_KS3_m(ptr noundef nonnull align 8 dereferenceable(800) %_M_elems, i64 noundef %0) #19
  ret ptr %call
}

; Function Attrs: mustprogress uwtable
define linkonce_odr noundef i32 @_ZN8facebook5velox6memory5Stats9sizeIndexEl(i64 noundef %size) #0 comdat align 2 {
entry:
  %retval = alloca i32, align 4
  %size.addr = alloca i64, align 8
  %power = alloca i64, align 8
  %ref.tmp = alloca i32, align 4
  %ref.tmp1 = alloca i32, align 4
  store i64 %size, ptr %size.addr, align 8
  %0 = load i64, ptr %size.addr, align 8
  %cmp = icmp eq i64 %0, 0
  br i1 %cmp, label %if.then, label %if.end

if.then:                                          ; preds = %entry
  store i32 0, ptr %retval, align 4
  br label %return

if.end:                                           ; preds = %entry
  %1 = load i64, ptr %size.addr, align 8
  %div = udiv i64 %1, 4096
  %call = call noundef i64 @_ZN8facebook5velox4bits14nextPowerOfTwoEm(i64 noundef %div)
  store i64 %call, ptr %power, align 8
  store i32 19, ptr %ref.tmp, align 4
  %2 = load i64, ptr %power, align 8
  %call2 = call noundef i32 @_ZN8facebook5velox4bits17countLeadingZerosImEEiT_(i64 noundef %2)
  %sub = sub nsw i32 63, %call2
  store i32 %sub, ptr %ref.tmp1, align 4
  %call3 = call noundef nonnull align 4 dereferenceable(4) ptr @_ZSt3minIiERKT_S2_S2_(ptr noundef nonnull align 4 dereferenceable(4) %ref.tmp, ptr noundef nonnull align 4 dereferenceable(4) %ref.tmp1)
  %3 = load i32, ptr %call3, align 4
  store i32 %3, ptr %retval, align 4
  br label %return

return:                                           ; preds = %if.end, %if.then
  %4 = load i32, ptr %retval, align 4
  ret i32 %4
}

; Function Attrs: mustprogress uwtable
define internal void @"_ZN8facebook5velox6memory5Stats10recordFreeIZNS1_15MallocAllocator14freeContiguousERNS1_20ContiguousAllocationEE3$_0EEvlT_"(ptr noundef nonnull align 8 dereferenceable(808) %this, i64 noundef %bytes, ptr %op.coerce0, ptr %op.coerce1) #0 align 2 personality ptr @__gxx_personality_v0 {
entry:
  %op = alloca %class.anon.24, align 8
  %this.addr = alloca ptr, align 8
  %bytes.addr = alloca i64, align 8
  %index = alloca i32, align 4
  %timer = alloca %"class.facebook::velox::ClockTimer", align 8
  %exn.slot = alloca ptr, align 8
  %ehselector.slot = alloca i32, align 4
  %0 = getelementptr inbounds { ptr, ptr }, ptr %op, i32 0, i32 0
  store ptr %op.coerce0, ptr %0, align 8
  %1 = getelementptr inbounds { ptr, ptr }, ptr %op, i32 0, i32 1
  store ptr %op.coerce1, ptr %1, align 8
  store ptr %this, ptr %this.addr, align 8
  store i64 %bytes, ptr %bytes.addr, align 8
  %this1 = load ptr, ptr %this.addr, align 8
  %2 = load i8, ptr @_ZN3fLB28FLAGS_velox_time_allocationsE, align 1
  %tobool = trunc i8 %2 to i1
  br i1 %tobool, label %if.then, label %if.else

if.then:                                          ; preds = %entry
  %3 = load i64, ptr %bytes.addr, align 8
  %call = call noundef i32 @_ZN8facebook5velox6memory5Stats9sizeIndexEl(i64 noundef %3)
  store i32 %call, ptr %index, align 4
  %sizes = getelementptr inbounds %"struct.facebook::velox::memory::Stats", ptr %this1, i32 0, i32 0
  %4 = load i32, ptr %index, align 4
  %conv = sext i32 %4 to i64
  %call2 = call noundef nonnull align 8 dereferenceable(40) ptr @_ZNSt5arrayIN8facebook5velox6memory14SizeClassStatsELm20EEixEm(ptr noundef nonnull align 8 dereferenceable(800) %sizes, i64 noundef %conv) #19
  %freeClocks = getelementptr inbounds %"struct.facebook::velox::memory::SizeClassStats", ptr %call2, i32 0, i32 2
  call void @_ZN8facebook5velox10ClockTimerC2ERSt6atomicImE(ptr noundef nonnull align 8 dereferenceable(24) %timer, ptr noundef nonnull align 8 dereferenceable(8) %freeClocks)
  invoke void @"_ZZN8facebook5velox6memory15MallocAllocator14freeContiguousERNS1_20ContiguousAllocationEENK3$_0clEv"(ptr noundef nonnull align 8 dereferenceable(16) %op)
          to label %invoke.cont unwind label %lpad

invoke.cont:                                      ; preds = %if.then
  call void @_ZN8facebook5velox10ClockTimerD2Ev(ptr noundef nonnull align 8 dereferenceable(24) %timer) #19
  br label %if.end

lpad:                                             ; preds = %if.then
  %5 = landingpad { ptr, i32 }
          cleanup
  %6 = extractvalue { ptr, i32 } %5, 0
  store ptr %6, ptr %exn.slot, align 8
  %7 = extractvalue { ptr, i32 } %5, 1
  store i32 %7, ptr %ehselector.slot, align 4
  call void @_ZN8facebook5velox10ClockTimerD2Ev(ptr noundef nonnull align 8 dereferenceable(24) %timer) #19
  br label %eh.resume

if.else:                                          ; preds = %entry
  call void @"_ZZN8facebook5velox6memory15MallocAllocator14freeContiguousERNS1_20ContiguousAllocationEENK3$_0clEv"(ptr noundef nonnull align 8 dereferenceable(16) %op)
  br label %if.end

if.end:                                           ; preds = %if.else, %invoke.cont
  ret void

eh.resume:                                        ; preds = %lpad
  %exn = load ptr, ptr %exn.slot, align 8
  %sel = load i32, ptr %ehselector.slot, align 4
  %lpad.val = insertvalue { ptr, i32 } poison, ptr %exn, 0
  %lpad.val3 = insertvalue { ptr, i32 } %lpad.val, i32 %sel, 1
  resume { ptr, i32 } %lpad.val3
}

; Function Attrs: mustprogress nounwind uwtable
define linkonce_odr noundef i64 @_ZNK8facebook5velox6memory20ContiguousAllocation4sizeEv(ptr noundef nonnull align 8 dereferenceable(32) %this) #1 comdat align 2 {
entry:
  %this.addr = alloca ptr, align 8
  store ptr %this, ptr %this.addr, align 8
  %this1 = load ptr, ptr %this.addr, align 8
  %size_ = getelementptr inbounds %"class.facebook::velox::memory::ContiguousAllocation", ptr %this1, i32 0, i32 2
  %0 = load i64, ptr %size_, align 8
  ret i64 %0
}

; Function Attrs: mustprogress uwtable
define void @_ZN8facebook5velox6memory15MallocAllocator14freeContiguousERNS1_20ContiguousAllocationE(ptr noundef nonnull align 8 dereferenceable(1016) %this, ptr noundef nonnull align 8 dereferenceable(32) %allocation) unnamed_addr #0 align 2 {
entry:
  %this.addr = alloca ptr, align 8
  %allocation.addr = alloca ptr, align 8
  %agg.tmp = alloca %class.anon.24, align 8
  store ptr %this, ptr %this.addr, align 8
  store ptr %allocation, ptr %allocation.addr, align 8
  %this1 = load ptr, ptr %this.addr, align 8
  %stats_ = getelementptr inbounds %"class.facebook::velox::memory::MemoryAllocator", ptr %this1, i32 0, i32 7
  %0 = load ptr, ptr %allocation.addr, align 8
  %call = call noundef i64 @_ZNK8facebook5velox6memory20ContiguousAllocation4sizeEv(ptr noundef nonnull align 8 dereferenceable(32) %0)
  %1 = getelementptr inbounds %class.anon.24, ptr %agg.tmp, i32 0, i32 0
  store ptr %this1, ptr %1, align 8
  %2 = getelementptr inbounds %class.anon.24, ptr %agg.tmp, i32 0, i32 1
  %3 = load ptr, ptr %allocation.addr, align 8
  store ptr %3, ptr %2, align 8
  %4 = getelementptr inbounds { ptr, ptr }, ptr %agg.tmp, i32 0, i32 0
  %5 = load ptr, ptr %4, align 8
  %6 = getelementptr inbounds { ptr, ptr }, ptr %agg.tmp, i32 0, i32 1
  %7 = load ptr, ptr %6, align 8
  call void @"_ZN8facebook5velox6memory5Stats10recordFreeIZNS1_15MallocAllocator14freeContiguousERNS1_20ContiguousAllocationEE3$_0EEvlT_"(ptr noundef nonnull align 8 dereferenceable(808) %stats_, i64 noundef %call, ptr %5, ptr %7)
  ret void
}